; Function Attrs: mustprogress nofree norecurse nosync nounwind willreturn memory(argmem: read) uwtable
define noundef double @_ZNK8QuantLib15BlackCalculator12deltaForwardEv(ptr nocapture noundef nonnull readonly align 8 dereferenceable(152) %this) local_unnamed_addr #17 align 2 {
entry:
  %stdDev_ = getelementptr inbounds nuw i8, ptr %this, i64 24
  %0 = load double, ptr %stdDev_, align 8, !tbaa !30
  %forward_ = getelementptr inbounds nuw i8, ptr %this, i64 16
  %1 = load double, ptr %forward_, align 8, !tbaa !29
  %mul = fmul double %0, %1
  %DalphaDd1_ = getelementptr inbounds nuw i8, ptr %this, i64 80
  %2 = load double, ptr %DalphaDd1_, align 8, !tbaa !56
  %div = fdiv double %2, %mul
  %DbetaDd2_ = getelementptr inbounds nuw i8, ptr %this, i64 88
  %3 = load double, ptr %DbetaDd2_, align 8, !tbaa !58
  %div2 = fdiv double %3, %mul
  %alpha_ = getelementptr inbounds nuw i8, ptr %this, i64 64
  %4 = load double, ptr %alpha_, align 8, !tbaa !55
  %5 = tail call double @llvm.fmuladd.f64(double %div, double %1, double %4)
  %x_ = getelementptr inbounds nuw i8, ptr %this, i64 128
  %6 = load double, ptr %x_, align 8, !tbaa !51
  %7 = tail call double @llvm.fmuladd.f64(double %div2, double %6, double %5)
  %discount_ = getelementptr inbounds nuw i8, ptr %this, i64 32
  %8 = load double, ptr %discount_, align 8, !tbaa !31
  %mul6 = fmul double %8, %7
  ret double %mul6
}